; Function Attrs: mustprogress uwtable
define void @_ZN10open_spiel11phantom_ttt23ImperfectRecallPTTTGameC2ERKSt3mapINSt7__cxx1112basic_stringIcSt11char_traitsIcESaIcEEENS_13GameParameterESt4lessIS8_ESaISt4pairIKS8_S9_EEE(ptr noundef nonnull align 8 dereferenceable(308) %0, ptr nocapture noundef nonnull readonly align 8 dereferenceable(48) %1) unnamed_addr #3 align 2 personality ptr @__gxx_personality_v0 {
  %3 = alloca %"struct.open_spiel::GameType", align 8
  call void @_ZN10open_spiel8GameTypeC2ERKS0_(ptr noundef nonnull align 8 dereferenceable(146) %3, ptr noundef nonnull align 8 dereferenceable(146) @_ZN10open_spiel11phantom_ttt12_GLOBAL__N_124kImperfectRecallGameTypeE)
  invoke void @_ZN10open_spiel11phantom_ttt14PhantomTTTGameC2ERKSt3mapINSt7__cxx1112basic_stringIcSt11char_traitsIcESaIcEEENS_13GameParameterESt4lessIS8_ESaISt4pairIKS8_S9_EEENS_8GameTypeE(ptr noundef nonnull align 8 dereferenceable(308) %0, ptr noundef nonnull align 8 dereferenceable(48) %1, ptr noundef nonnull %3)
          to label %4 unwind label %12

4:                                                ; preds = %2
  %5 = getelementptr inbounds nuw i8, ptr %3, i64 96
  %6 = getelementptr inbounds i8, ptr %3, i64 112
  %7 = load ptr, ptr %6, align 8
  invoke void @_ZNSt8_Rb_treeINSt7__cxx1112basic_stringIcSt11char_traitsIcESaIcEEESt4pairIKS5_N10open_spiel13GameParameterEESt10_Select1stISA_ESt4lessIS5_ESaISA_EE8_M_eraseEPSt13_Rb_tree_nodeISA_E(ptr noundef nonnull align 8 dereferenceable(48) %5, ptr noundef %7)
          to label %_ZN10open_spiel8GameTypeD2Ev.exit unwind label %8

8:                                                ; preds = %4
  %9 = landingpad { ptr, i32 }
          catch ptr null
  %10 = extractvalue { ptr, i32 } %9, 0
  call void @__clang_call_terminate(ptr %10) #23
  unreachable

_ZN10open_spiel8GameTypeD2Ev.exit:                ; preds = %4
  %11 = getelementptr inbounds nuw i8, ptr %3, i64 32
  call void @_ZNSt7__cxx1112basic_stringIcSt11char_traitsIcESaIcEED1Ev(ptr noundef nonnull align 8 dereferenceable(32) %11) #22
  call void @_ZNSt7__cxx1112basic_stringIcSt11char_traitsIcESaIcEED1Ev(ptr noundef nonnull align 8 dereferenceable(32) %3) #22
  store ptr getelementptr inbounds inrange(-16, 216) (i8, ptr @_ZTVN10open_spiel11phantom_ttt23ImperfectRecallPTTTGameE, i64 16), ptr %0, align 8
  ret void

12:                                               ; preds = %2
  %13 = landingpad { ptr, i32 }
          cleanup
  call void @_ZN10open_spiel8GameTypeD2Ev(ptr noundef nonnull align 8 dereferenceable(146) %3) #22
  resume { ptr, i32 } %13
}